target datalayout = "e-m:e-p270:32:32-p271:32:32-p272:64:64-i64:64-i128:128-f80:128-n8:16:32:64-S128"
target triple = "x86_64-pc-linux-gnu"

%struct.Color = type { i8, i8, i8, i8 }
%struct.Vector2 = type { float, float }

; Function Attrs: nounwind uwtable
define void @DrawRingLines(<2 x float> %0, float noundef %1, float noundef %2, float noundef %3, float noundef %4, i32 noundef %5, i32 %6) #0 {
  %8 = alloca %struct.Vector2, align 4
  %9 = alloca %struct.Color, align 1
  %10 = alloca float, align 4
  %11 = alloca float, align 4
  %12 = alloca float, align 4
  %13 = alloca float, align 4
  %14 = alloca i32, align 4
  %15 = alloca float, align 4
  %16 = alloca float, align 4
  %17 = alloca i32, align 4
  %18 = alloca float, align 4
  %19 = alloca i32, align 4
  %20 = alloca float, align 4
  %21 = alloca float, align 4
  %22 = alloca i8, align 1
  %23 = alloca i32, align 4
  store <2 x float> %0, ptr %8, align 4
  store i32 %6, ptr %9, align 1
  store float %1, ptr %10, align 4
  store float %2, ptr %11, align 4
  store float %3, ptr %12, align 4
  store float %4, ptr %13, align 4
  store i32 %5, ptr %14, align 4
  %24 = load float, ptr %12, align 4
  %25 = load float, ptr %13, align 4
  %26 = fcmp oeq float %24, %25
  br i1 %26, label %27, label %28

27:                                               ; preds = %7
  br label %264

28:                                               ; preds = %7
  %29 = load float, ptr %11, align 4
  %30 = load float, ptr %10, align 4
  %31 = fcmp olt float %29, %30
  br i1 %31, label %32, label %40

32:                                               ; preds = %28
  call void @llvm.lifetime.start.p0(i64 4, ptr %15) #8
  %33 = load float, ptr %11, align 4
  store float %33, ptr %15, align 4
  %34 = load float, ptr %10, align 4
  store float %34, ptr %11, align 4
  %35 = load float, ptr %15, align 4
  store float %35, ptr %10, align 4
  %36 = load float, ptr %11, align 4
  %37 = fcmp ole float %36, 0.000000e+00
  br i1 %37, label %38, label %39

38:                                               ; preds = %32
  store float 0x3FB99999A0000000, ptr %11, align 4
  br label %39

39:                                               ; preds = %38, %32
  call void @llvm.lifetime.end.p0(i64 4, ptr %15) #8
  br label %40

40:                                               ; preds = %39, %28
  %41 = load float, ptr %13, align 4
  %42 = load float, ptr %12, align 4
  %43 = fcmp olt float %41, %42
  br i1 %43, label %44, label %48

44:                                               ; preds = %40
  call void @llvm.lifetime.start.p0(i64 4, ptr %16) #8
  %45 = load float, ptr %12, align 4
  store float %45, ptr %16, align 4
  %46 = load float, ptr %13, align 4
  store float %46, ptr %12, align 4
  %47 = load float, ptr %16, align 4
  store float %47, ptr %13, align 4
  call void @llvm.lifetime.end.p0(i64 4, ptr %16) #8
  br label %48

48:                                               ; preds = %44, %40
  call void @llvm.lifetime.start.p0(i64 4, ptr %17) #8
  %49 = load float, ptr %13, align 4
  %50 = load float, ptr %12, align 4
  %51 = fsub float %49, %50
  %52 = fdiv float %51, 9.000000e+01
  %53 = call float @llvm.ceil.f32(float %52)
  %54 = fptosi float %53 to i32
  store i32 %54, ptr %17, align 4
  %55 = load i32, ptr %14, align 4
  %56 = load i32, ptr %17, align 4
  %57 = icmp slt i32 %55, %56
  br i1 %57, label %58, label %79

58:                                               ; preds = %48
  call void @llvm.lifetime.start.p0(i64 4, ptr %18) #8
  %59 = load float, ptr %11, align 4
  %60 = fdiv float 5.000000e-01, %59
  %61 = fsub float 1.000000e+00, %60
  %62 = call float @powf(float noundef %61, float noundef 2.000000e+00) #8
  %63 = call float @llvm.fmuladd.f32(float 2.000000e+00, float %62, float -1.000000e+00)
  %64 = call float @acosf(float noundef %63) #8
  store float %64, ptr %18, align 4
  %65 = load float, ptr %13, align 4
  %66 = load float, ptr %12, align 4
  %67 = fsub float %65, %66
  %68 = load float, ptr %18, align 4
  %69 = fdiv float 0x401921FB60000000, %68
  %70 = call float @llvm.ceil.f32(float %69)
  %71 = fmul float %67, %70
  %72 = fdiv float %71, 3.600000e+02
  %73 = fptosi float %72 to i32
  store i32 %73, ptr %14, align 4
  %74 = load i32, ptr %14, align 4
  %75 = icmp sle i32 %74, 0
  br i1 %75, label %76, label %78

76:                                               ; preds = %58
  %77 = load i32, ptr %17, align 4
  store i32 %77, ptr %14, align 4
  br label %78

78:                                               ; preds = %76, %58
  call void @llvm.lifetime.end.p0(i64 4, ptr %18) #8
  br label %79

79:                                               ; preds = %78, %48
  %80 = load float, ptr %10, align 4
  %81 = fcmp ole float %80, 0.000000e+00
  br i1 %81, label %82, label %89

82:                                               ; preds = %79
  %83 = load float, ptr %11, align 4
  %84 = load float, ptr %12, align 4
  %85 = load float, ptr %13, align 4
  %86 = load i32, ptr %14, align 4
  %87 = load <2 x float>, ptr %8, align 4
  %88 = load i32, ptr %9, align 1
  call void @DrawCircleSectorLines(<2 x float> %87, float noundef %83, float noundef %84, float noundef %85, i32 noundef %86, i32 %88)
  store i32 1, ptr %19, align 4
  br label %262

89:                                               ; preds = %79
  call void @llvm.lifetime.start.p0(i64 4, ptr %20) #8
  %90 = load float, ptr %13, align 4
  %91 = load float, ptr %12, align 4
  %92 = fsub float %90, %91
  %93 = load i32, ptr %14, align 4
  %94 = sitofp i32 %93 to float
  %95 = fdiv float %92, %94
  store float %95, ptr %20, align 4
  call void @llvm.lifetime.start.p0(i64 4, ptr %21) #8
  %96 = load float, ptr %12, align 4
  store float %96, ptr %21, align 4
  call void @llvm.lifetime.start.p0(i64 1, ptr %22) #8
  store i8 1, ptr %22, align 1
  call void @rlBegin(i32 noundef 1)
  %97 = load i8, ptr %22, align 1, !range !3, !noundef !4
  %98 = trunc i8 %97 to i1
  br i1 %98, label %99, label %136

99:                                               ; preds = %89
  %100 = getelementptr inbounds nuw %struct.Color, ptr %9, i32 0, i32 0
  %101 = load i8, ptr %100, align 1
  %102 = getelementptr inbounds nuw %struct.Color, ptr %9, i32 0, i32 1
  %103 = load i8, ptr %102, align 1
  %104 = getelementptr inbounds nuw %struct.Color, ptr %9, i32 0, i32 2
  %105 = load i8, ptr %104, align 1
  %106 = getelementptr inbounds nuw %struct.Color, ptr %9, i32 0, i32 3
  %107 = load i8, ptr %106, align 1
  call void @rlColor4ub(i8 noundef zeroext %101, i8 noundef zeroext %103, i8 noundef zeroext %105, i8 noundef zeroext %107)
  %108 = getelementptr inbounds nuw %struct.Vector2, ptr %8, i32 0, i32 0
  %109 = load float, ptr %108, align 4
  %110 = load float, ptr %21, align 4
  %111 = fmul float 0x3F91DF46A0000000, %110
  %112 = call float @cosf(float noundef %111) #8
  %113 = load float, ptr %11, align 4
  %114 = call float @llvm.fmuladd.f32(float %112, float %113, float %109)
  %115 = getelementptr inbounds nuw %struct.Vector2, ptr %8, i32 0, i32 1
  %116 = load float, ptr %115, align 4
  %117 = load float, ptr %21, align 4
  %118 = fmul float 0x3F91DF46A0000000, %117
  %119 = call float @sinf(float noundef %118) #8
  %120 = load float, ptr %11, align 4
  %121 = call float @llvm.fmuladd.f32(float %119, float %120, float %116)
  call void @rlVertex2f(float noundef %114, float noundef %121)
  %122 = getelementptr inbounds nuw %struct.Vector2, ptr %8, i32 0, i32 0
  %123 = load float, ptr %122, align 4
  %124 = load float, ptr %21, align 4
  %125 = fmul float 0x3F91DF46A0000000, %124
  %126 = call float @cosf(float noundef %125) #8
  %127 = load float, ptr %10, align 4
  %128 = call float @llvm.fmuladd.f32(float %126, float %127, float %123)
  %129 = getelementptr inbounds nuw %struct.Vector2, ptr %8, i32 0, i32 1
  %130 = load float, ptr %129, align 4
  %131 = load float, ptr %21, align 4
  %132 = fmul float 0x3F91DF46A0000000, %131
  %133 = call float @sinf(float noundef %132) #8
  %134 = load float, ptr %10, align 4
  %135 = call float @llvm.fmuladd.f32(float %133, float %134, float %130)
  call void @rlVertex2f(float noundef %128, float noundef %135)
  br label %136

136:                                              ; preds = %99, %89
  call void @llvm.lifetime.start.p0(i64 4, ptr %23) #8
  store i32 0, ptr %23, align 4
  br label %137

137:                                              ; preds = %218, %136
  %138 = load i32, ptr %23, align 4
  %139 = load i32, ptr %14, align 4
  %140 = icmp slt i32 %138, %139
  br i1 %140, label %142, label %141

141:                                              ; preds = %137
  store i32 2, ptr %19, align 4
  call void @llvm.lifetime.end.p0(i64 4, ptr %23) #8
  br label %221

142:                                              ; preds = %137
  %143 = getelementptr inbounds nuw %struct.Color, ptr %9, i32 0, i32 0
  %144 = load i8, ptr %143, align 1
  %145 = getelementptr inbounds nuw %struct.Color, ptr %9, i32 0, i32 1
  %146 = load i8, ptr %145, align 1
  %147 = getelementptr inbounds nuw %struct.Color, ptr %9, i32 0, i32 2
  %148 = load i8, ptr %147, align 1
  %149 = getelementptr inbounds nuw %struct.Color, ptr %9, i32 0, i32 3
  %150 = load i8, ptr %149, align 1
  call void @rlColor4ub(i8 noundef zeroext %144, i8 noundef zeroext %146, i8 noundef zeroext %148, i8 noundef zeroext %150)
  %151 = getelementptr inbounds nuw %struct.Vector2, ptr %8, i32 0, i32 0
  %152 = load float, ptr %151, align 4
  %153 = load float, ptr %21, align 4
  %154 = fmul float 0x3F91DF46A0000000, %153
  %155 = call float @cosf(float noundef %154) #8
  %156 = load float, ptr %11, align 4
  %157 = call float @llvm.fmuladd.f32(float %155, float %156, float %152)
  %158 = getelementptr inbounds nuw %struct.Vector2, ptr %8, i32 0, i32 1
  %159 = load float, ptr %158, align 4
  %160 = load float, ptr %21, align 4
  %161 = fmul float 0x3F91DF46A0000000, %160
  %162 = call float @sinf(float noundef %161) #8
  %163 = load float, ptr %11, align 4
  %164 = call float @llvm.fmuladd.f32(float %162, float %163, float %159)
  call void @rlVertex2f(float noundef %157, float noundef %164)
  %165 = getelementptr inbounds nuw %struct.Vector2, ptr %8, i32 0, i32 0
  %166 = load float, ptr %165, align 4
  %167 = load float, ptr %21, align 4
  %168 = load float, ptr %20, align 4
  %169 = fadd float %167, %168
  %170 = fmul float 0x3F91DF46A0000000, %169
  %171 = call float @cosf(float noundef %170) #8
  %172 = load float, ptr %11, align 4
  %173 = call float @llvm.fmuladd.f32(float %171, float %172, float %166)
  %174 = getelementptr inbounds nuw %struct.Vector2, ptr %8, i32 0, i32 1
  %175 = load float, ptr %174, align 4
  %176 = load float, ptr %21, align 4
  %177 = load float, ptr %20, align 4
  %178 = fadd float %176, %177
  %179 = fmul float 0x3F91DF46A0000000, %178
  %180 = call float @sinf(float noundef %179) #8
  %181 = load float, ptr %11, align 4
  %182 = call float @llvm.fmuladd.f32(float %180, float %181, float %175)
  call void @rlVertex2f(float noundef %173, float noundef %182)
  %183 = getelementptr inbounds nuw %struct.Vector2, ptr %8, i32 0, i32 0
  %184 = load float, ptr %183, align 4
  %185 = load float, ptr %21, align 4
  %186 = fmul float 0x3F91DF46A0000000, %185
  %187 = call float @cosf(float noundef %186) #8
  %188 = load float, ptr %10, align 4
  %189 = call float @llvm.fmuladd.f32(float %187, float %188, float %184)
  %190 = getelementptr inbounds nuw %struct.Vector2, ptr %8, i32 0, i32 1
  %191 = load float, ptr %190, align 4
  %192 = load float, ptr %21, align 4
  %193 = fmul float 0x3F91DF46A0000000, %192
  %194 = call float @sinf(float noundef %193) #8
  %195 = load float, ptr %10, align 4
  %196 = call float @llvm.fmuladd.f32(float %194, float %195, float %191)
  call void @rlVertex2f(float noundef %189, float noundef %196)
  %197 = getelementptr inbounds nuw %struct.Vector2, ptr %8, i32 0, i32 0
  %198 = load float, ptr %197, align 4
  %199 = load float, ptr %21, align 4
  %200 = load float, ptr %20, align 4
  %201 = fadd float %199, %200
  %202 = fmul float 0x3F91DF46A0000000, %201
  %203 = call float @cosf(float noundef %202) #8
  %204 = load float, ptr %10, align 4
  %205 = call float @llvm.fmuladd.f32(float %203, float %204, float %198)
  %206 = getelementptr inbounds nuw %struct.Vector2, ptr %8, i32 0, i32 1
  %207 = load float, ptr %206, align 4
  %208 = load float, ptr %21, align 4
  %209 = load float, ptr %20, align 4
  %210 = fadd float %208, %209
  %211 = fmul float 0x3F91DF46A0000000, %210
  %212 = call float @sinf(float noundef %211) #8
  %213 = load float, ptr %10, align 4
  %214 = call float @llvm.fmuladd.f32(float %212, float %213, float %207)
  call void @rlVertex2f(float noundef %205, float noundef %214)
  %215 = load float, ptr %20, align 4
  %216 = load float, ptr %21, align 4
  %217 = fadd float %216, %215
  store float %217, ptr %21, align 4
  br label %218

218:                                              ; preds = %142
  %219 = load i32, ptr %23, align 4
  %220 = add nsw i32 %219, 1
  store i32 %220, ptr %23, align 4
  br label %137

221:                                              ; preds = %141
  %222 = load i8, ptr %22, align 1, !range !3, !noundef !4
  %223 = trunc i8 %222 to i1
  br i1 %223, label %224, label %261

224:                                              ; preds = %221
  %225 = getelementptr inbounds nuw %struct.Color, ptr %9, i32 0, i32 0
  %226 = load i8, ptr %225, align 1
  %227 = getelementptr inbounds nuw %struct.Color, ptr %9, i32 0, i32 1
  %228 = load i8, ptr %227, align 1
  %229 = getelementptr inbounds nuw %struct.Color, ptr %9, i32 0, i32 2
  %230 = load i8, ptr %229, align 1
  %231 = getelementptr inbounds nuw %struct.Color, ptr %9, i32 0, i32 3
  %232 = load i8, ptr %231, align 1
  call void @rlColor4ub(i8 noundef zeroext %226, i8 noundef zeroext %228, i8 noundef zeroext %230, i8 noundef zeroext %232)
  %233 = getelementptr inbounds nuw %struct.Vector2, ptr %8, i32 0, i32 0
  %234 = load float, ptr %233, align 4
  %235 = load float, ptr %21, align 4
  %236 = fmul float 0x3F91DF46A0000000, %235
  %237 = call float @cosf(float noundef %236) #8
  %238 = load float, ptr %11, align 4
  %239 = call float @llvm.fmuladd.f32(float %237, float %238, float %234)
  %240 = getelementptr inbounds nuw %struct.Vector2, ptr %8, i32 0, i32 1
  %241 = load float, ptr %240, align 4
  %242 = load float, ptr %21, align 4
  %243 = fmul float 0x3F91DF46A0000000, %242
  %244 = call float @sinf(float noundef %243) #8
  %245 = load float, ptr %11, align 4
  %246 = call float @llvm.fmuladd.f32(float %244, float %245, float %241)
  call void @rlVertex2f(float noundef %239, float noundef %246)
  %247 = getelementptr inbounds nuw %struct.Vector2, ptr %8, i32 0, i32 0
  %248 = load float, ptr %247, align 4
  %249 = load float, ptr %21, align 4
  %250 = fmul float 0x3F91DF46A0000000, %249
  %251 = call float @cosf(float noundef %250) #8
  %252 = load float, ptr %10, align 4
  %253 = call float @llvm.fmuladd.f32(float %251, float %252, float %248)
  %254 = getelementptr inbounds nuw %struct.Vector2, ptr %8, i32 0, i32 1
  %255 = load float, ptr %254, align 4
  %256 = load float, ptr %21, align 4
  %257 = fmul float 0x3F91DF46A0000000, %256
  %258 = call float @sinf(float noundef %257) #8
  %259 = load float, ptr %10, align 4
  %260 = call float @llvm.fmuladd.f32(float %258, float %259, float %255)
  call void @rlVertex2f(float noundef %253, float noundef %260)
  br label %261

261:                                              ; preds = %224, %221
  call void @rlEnd()
  call void @llvm.lifetime.end.p0(i64 1, ptr %22) #8
  call void @llvm.lifetime.end.p0(i64 4, ptr %21) #8
  call void @llvm.lifetime.end.p0(i64 4, ptr %20) #8
  store i32 0, ptr %19, align 4
  br label %262

262:                                              ; preds = %261, %82
  call void @llvm.lifetime.end.p0(i64 4, ptr %17) #8
  %263 = load i32, ptr %19, align 4
  switch i32 %263, label %265 [
    i32 0, label %264
    i32 1, label %264
  ]

264:                                              ; preds = %27, %262, %262
  ret void

265:                                              ; preds = %262
  unreachable
}