; Function Attrs: nounwind uwtable
define void @DrawRingLines(<2 x float> %0, float noundef %1, float noundef %2, float noundef %3, float noundef %4, i32 noundef %5, i32 %6) local_unnamed_addr #4 {
  %.sroa.0.0.extract.trunc = trunc i32 %6 to i8
  %.sroa.5.0.extract.shift = lshr i32 %6, 8
  %.sroa.5.0.extract.trunc = trunc i32 %.sroa.5.0.extract.shift to i8
  %.sroa.8.0.extract.shift = lshr i32 %6, 16
  %.sroa.8.0.extract.trunc = trunc i32 %.sroa.8.0.extract.shift to i8
  %.sroa.11.0.extract.shift = lshr i32 %6, 24
  %.sroa.11.0.extract.trunc = trunc nuw i32 %.sroa.11.0.extract.shift to i8
  %8 = fcmp oeq float %3, %4
  br i1 %8, label %73, label %9

9:                                                ; preds = %7
  %10 = fcmp olt float %2, %1
  %11 = fcmp ugt float %1, 0.000000e+00
  %.1 = select i1 %11, float %1, float 0x3FB99999A0000000
  %.0115 = select i1 %10, float %.1, float %2
  %.0113 = select i1 %10, float %2, float %1
  %12 = fcmp olt float %4, %3
  %.0117 = select i1 %12, float %3, float %4
  %.0116 = select i1 %12, float %4, float %3
  %13 = fsub float %.0117, %.0116
  %14 = fdiv float %13, 9.000000e+01
  %15 = tail call float @llvm.ceil.f32(float %14)
  %16 = fptosi float %15 to i32
  %17 = icmp slt i32 %5, %16
  br i1 %17, label %18, label %29

18:                                               ; preds = %9
  %19 = fdiv float 5.000000e-01, %.0115
  %20 = fsub float 1.000000e+00, %19
  %square = fmul float %20, %20
  %21 = tail call float @llvm.fmuladd.f32(float %square, float 2.000000e+00, float -1.000000e+00)
  %22 = tail call float @acosf(float noundef %21) #16
  %23 = fdiv float 0x401921FB60000000, %22
  %24 = tail call float @llvm.ceil.f32(float %23)
  %25 = fmul float %13, %24
  %26 = fdiv float %25, 3.600000e+02
  %27 = fptosi float %26 to i32
  %28 = icmp slt i32 %27, 1
  %spec.select = select i1 %28, i32 %16, i32 %27
  br label %29

29:                                               ; preds = %18, %9
  %.0118 = phi i32 [ %spec.select, %18 ], [ %5, %9 ]
  %30 = fcmp ugt float %.0113, 0.000000e+00
  br i1 %30, label %32, label %31

31:                                               ; preds = %29
  tail call void @DrawCircleSectorLines(<2 x float> %0, float noundef %.0115, float noundef %.0116, float noundef %.0117, i32 noundef %.0118, i32 %6)
  br label %73

32:                                               ; preds = %29
  %33 = sitofp i32 %.0118 to float
  %34 = fdiv float %13, %33
  tail call void @rlBegin(i32 noundef 1) #16
  tail call void @rlColor4ub(i8 noundef zeroext %.sroa.0.0.extract.trunc, i8 noundef zeroext %.sroa.5.0.extract.trunc, i8 noundef zeroext %.sroa.8.0.extract.trunc, i8 noundef zeroext %.sroa.11.0.extract.trunc) #16
  %.sroa.083.0.vec.extract = extractelement <2 x float> %0, i64 0
  %35 = fmul float %.0116, 0x3F91DF46A0000000
  %36 = tail call float @cosf(float noundef %35) #16
  %37 = tail call float @llvm.fmuladd.f32(float %36, float %.0115, float %.sroa.083.0.vec.extract)
  %.sroa.083.4.vec.extract = extractelement <2 x float> %0, i64 1
  %38 = tail call float @sinf(float noundef %35) #16
  %39 = tail call float @llvm.fmuladd.f32(float %38, float %.0115, float %.sroa.083.4.vec.extract)
  tail call void @rlVertex2f(float noundef %37, float noundef %39) #16
  %40 = tail call float @cosf(float noundef %35) #16
  %41 = tail call float @llvm.fmuladd.f32(float %40, float %.0113, float %.sroa.083.0.vec.extract)
  %42 = tail call float @sinf(float noundef %35) #16
  %43 = tail call float @llvm.fmuladd.f32(float %42, float %.0113, float %.sroa.083.4.vec.extract)
  tail call void @rlVertex2f(float noundef %41, float noundef %43) #16
  %44 = icmp sgt i32 %.0118, 0
  br i1 %44, label %.lr.ph, label %._crit_edge

.lr.ph:                                           ; preds = %32, %.lr.ph
  %.0130 = phi i32 [ %64, %.lr.ph ], [ 0, %32 ]
  %.0114129 = phi float [ %50, %.lr.ph ], [ %.0116, %32 ]
  tail call void @rlColor4ub(i8 noundef zeroext %.sroa.0.0.extract.trunc, i8 noundef zeroext %.sroa.5.0.extract.trunc, i8 noundef zeroext %.sroa.8.0.extract.trunc, i8 noundef zeroext %.sroa.11.0.extract.trunc) #16
  %45 = fmul float %.0114129, 0x3F91DF46A0000000
  %46 = tail call float @cosf(float noundef %45) #16
  %47 = tail call float @llvm.fmuladd.f32(float %46, float %.0115, float %.sroa.083.0.vec.extract)
  %48 = tail call float @sinf(float noundef %45) #16
  %49 = tail call float @llvm.fmuladd.f32(float %48, float %.0115, float %.sroa.083.4.vec.extract)
  tail call void @rlVertex2f(float noundef %47, float noundef %49) #16
  %50 = fadd float %34, %.0114129
  %51 = fmul float %50, 0x3F91DF46A0000000
  %52 = tail call float @cosf(float noundef %51) #16
  %53 = tail call float @llvm.fmuladd.f32(float %52, float %.0115, float %.sroa.083.0.vec.extract)
  %54 = tail call float @sinf(float noundef %51) #16
  %55 = tail call float @llvm.fmuladd.f32(float %54, float %.0115, float %.sroa.083.4.vec.extract)
  tail call void @rlVertex2f(float noundef %53, float noundef %55) #16
  %56 = tail call float @cosf(float noundef %45) #16
  %57 = tail call float @llvm.fmuladd.f32(float %56, float %.0113, float %.sroa.083.0.vec.extract)
  %58 = tail call float @sinf(float noundef %45) #16
  %59 = tail call float @llvm.fmuladd.f32(float %58, float %.0113, float %.sroa.083.4.vec.extract)
  tail call void @rlVertex2f(float noundef %57, float noundef %59) #16
  %60 = tail call float @cosf(float noundef %51) #16
  %61 = tail call float @llvm.fmuladd.f32(float %60, float %.0113, float %.sroa.083.0.vec.extract)
  %62 = tail call float @sinf(float noundef %51) #16
  %63 = tail call float @llvm.fmuladd.f32(float %62, float %.0113, float %.sroa.083.4.vec.extract)
  tail call void @rlVertex2f(float noundef %61, float noundef %63) #16
  %64 = add nuw nsw i32 %.0130, 1
  %exitcond.not = icmp eq i32 %64, %.0118
  br i1 %exitcond.not, label %._crit_edge, label %.lr.ph

._crit_edge:                                      ; preds = %.lr.ph, %32
  %.pre-phi = phi float [ %35, %32 ], [ %51, %.lr.ph ]
  tail call void @rlColor4ub(i8 noundef zeroext %.sroa.0.0.extract.trunc, i8 noundef zeroext %.sroa.5.0.extract.trunc, i8 noundef zeroext %.sroa.8.0.extract.trunc, i8 noundef zeroext %.sroa.11.0.extract.trunc) #16
  %65 = tail call float @cosf(float noundef %.pre-phi) #16
  %66 = tail call float @llvm.fmuladd.f32(float %65, float %.0115, float %.sroa.083.0.vec.extract)
  %67 = tail call float @sinf(float noundef %.pre-phi) #16
  %68 = tail call float @llvm.fmuladd.f32(float %67, float %.0115, float %.sroa.083.4.vec.extract)
  tail call void @rlVertex2f(float noundef %66, float noundef %68) #16
  %69 = tail call float @cosf(float noundef %.pre-phi) #16
  %70 = tail call float @llvm.fmuladd.f32(float %69, float %.0113, float %.sroa.083.0.vec.extract)
  %71 = tail call float @sinf(float noundef %.pre-phi) #16
  %72 = tail call float @llvm.fmuladd.f32(float %71, float %.0113, float %.sroa.083.4.vec.extract)
  tail call void @rlVertex2f(float noundef %70, float noundef %72) #16
  tail call void @rlEnd() #16
  br label %73

73:                                               ; preds = %31, %._crit_edge, %7
  ret void
}